target datalayout = "e-m:e-p270:32:32-p271:32:32-p272:64:64-i64:64-i128:128-f80:128-n8:16:32:64-S128"
target triple = "x86_64-pc-linux-gnu"

%struct.cl_engine = type { i32, i32, i32, [2 x i32], i32, i32, i32, ptr, i32, i64, i32, i32, i64, i64, i32, i32, i32, i32, ptr, ptr, ptr, ptr, ptr, ptr, ptr, ptr, ptr, ptr, ptr, ptr, ptr, ptr, ptr, ptr, ptr, ptr, ptr, i64, ptr, %struct.crtmgr, ptr, ptr, ptr, ptr, ptr, ptr, ptr, ptr, ptr, ptr, ptr, ptr, ptr, ptr, ptr, ptr, ptr, %struct.cli_all_bc, [7 x ptr], [7 x i32], i32, i32, i32, i32, i64, i64, i64, i64, i64, ptr, ptr, ptr, ptr, ptr, ptr, ptr, ptr, ptr, i32, i32, i32, i64, i64, i64, ptr }
%struct.crtmgr = type { ptr, i32 }
%struct.cli_all_bc = type { ptr, i32, ptr, %struct.cli_environment, i32 }
%struct.cli_environment = type { i32, i32, i32, i32, i32, i32, i32, [65 x i8], [65 x i8], [65 x i8], [65 x i8], [65 x i8], [65 x i8], [65 x i8], i8, i8, i8, i8, i8, i8, i8, i8, i8 }

@.str.12 = private unnamed_addr constant [3 x i8] c"rb\00", align 1
@.str.16 = private unnamed_addr constant [34 x i8] c"cl_cvdverify: Can't open file %s\0A\00", align 1
@.str.17 = private unnamed_addr constant [39 x i8] c"cl_cvdverify: Can't create new engine\0A\00", align 1
@.str.18 = private unnamed_addr constant [5 x i8] c".cld\00", align 1
@.str.19 = private unnamed_addr constant [5 x i8] c".cud\00", align 1

; Function Attrs: nounwind uwtable
define i32 @cl_cvdverify(ptr noundef %0) #0 {
  %2 = alloca i32, align 4
  %3 = alloca ptr, align 8
  %4 = alloca ptr, align 8
  %5 = alloca ptr, align 8
  %6 = alloca i32, align 4
  %7 = alloca i32, align 4
  %8 = alloca i32, align 4
  store ptr %0, ptr %3, align 8, !tbaa !3
  call void @llvm.lifetime.start.p0(i64 8, ptr %4) #11
  call void @llvm.lifetime.start.p0(i64 8, ptr %5) #11
  call void @llvm.lifetime.start.p0(i64 4, ptr %6) #11
  call void @llvm.lifetime.start.p0(i64 4, ptr %7) #11
  store i32 0, ptr %7, align 4, !tbaa !22
  %9 = load ptr, ptr %3, align 8, !tbaa !3
  %10 = call noalias ptr @fopen(ptr noundef %9, ptr noundef @.str.12)
  store ptr %10, ptr %5, align 8, !tbaa !20
  %11 = icmp eq ptr %10, null
  br i1 %11, label %12, label %14

12:                                               ; preds = %1
  %13 = load ptr, ptr %3, align 8, !tbaa !3
  call void (ptr, ...) @cli_errmsg(ptr noundef @.str.16, ptr noundef %13)
  store i32 8, ptr %2, align 4
  store i32 1, ptr %8, align 4
  br label %44

14:                                               ; preds = %1
  %15 = call ptr @cl_engine_new()
  store ptr %15, ptr %4, align 8, !tbaa !24
  %16 = icmp ne ptr %15, null
  br i1 %16, label %20, label %17

17:                                               ; preds = %14
  call void (ptr, ...) @cli_errmsg(ptr noundef @.str.17)
  %18 = load ptr, ptr %5, align 8, !tbaa !20
  %19 = call i32 @fclose(ptr noundef %18)
  store i32 20, ptr %2, align 4
  store i32 1, ptr %8, align 4
  br label %44

20:                                               ; preds = %14
  %21 = load ptr, ptr %4, align 8, !tbaa !24
  %22 = getelementptr inbounds nuw %struct.cl_engine, ptr %21, i32 0, i32 73
  store ptr null, ptr %22, align 8, !tbaa !26
  %23 = load ptr, ptr %3, align 8, !tbaa !3
  %24 = call i32 @cli_strbcasestr(ptr noundef %23, ptr noundef @.str.18)
  %25 = icmp ne i32 %24, 0
  br i1 %25, label %26, label %27

26:                                               ; preds = %20
  store i32 1, ptr %7, align 4, !tbaa !22
  br label %33

27:                                               ; preds = %20
  %28 = load ptr, ptr %3, align 8, !tbaa !3
  %29 = call i32 @cli_strbcasestr(ptr noundef %28, ptr noundef @.str.19)
  %30 = icmp ne i32 %29, 0
  br i1 %30, label %31, label %32

31:                                               ; preds = %27
  store i32 2, ptr %7, align 4, !tbaa !22
  br label %32

32:                                               ; preds = %31, %27
  br label %33

33:                                               ; preds = %32, %26
  %34 = load ptr, ptr %5, align 8, !tbaa !20
  %35 = load ptr, ptr %4, align 8, !tbaa !24
  %36 = load i32, ptr %7, align 4, !tbaa !22
  %37 = load ptr, ptr %3, align 8, !tbaa !3
  %38 = call i32 @cli_cvdload(ptr noundef %34, ptr noundef %35, ptr noundef null, i32 noundef 8218, i32 noundef %36, ptr noundef %37, i32 noundef 1)
  store i32 %38, ptr %6, align 4, !tbaa !22
  %39 = load ptr, ptr %4, align 8, !tbaa !24
  %40 = call i32 @cl_engine_free(ptr noundef %39)
  %41 = load ptr, ptr %5, align 8, !tbaa !20
  %42 = call i32 @fclose(ptr noundef %41)
  %43 = load i32, ptr %6, align 4, !tbaa !22
  store i32 %43, ptr %2, align 4
  store i32 1, ptr %8, align 4
  br label %44

44:                                               ; preds = %33, %17, %12
  call void @llvm.lifetime.end.p0(i64 4, ptr %7) #11
  call void @llvm.lifetime.end.p0(i64 4, ptr %6) #11
  call void @llvm.lifetime.end.p0(i64 8, ptr %5) #11
  call void @llvm.lifetime.end.p0(i64 8, ptr %4) #11
  %45 = load i32, ptr %2, align 4
  ret i32 %45
}