; Function Attrs: nounwind uwtable
define range(i32 0, 27) i32 @cl_cvdverify(ptr noundef %0) local_unnamed_addr #0 {
  %2 = tail call noalias ptr @fopen(ptr noundef %0, ptr noundef nonnull @.str.12)
  %3 = icmp eq ptr %2, null
  br i1 %3, label %4, label %5

4:                                                ; preds = %1
  tail call void (ptr, ...) @cli_errmsg(ptr noundef nonnull @.str.16, ptr noundef %0) #19
  br label %18

5:                                                ; preds = %1
  %6 = tail call ptr @cl_engine_new() #19
  %.not = icmp eq ptr %6, null
  br i1 %.not, label %7, label %9

7:                                                ; preds = %5
  tail call void (ptr, ...) @cli_errmsg(ptr noundef nonnull @.str.17) #19
  %8 = tail call i32 @fclose(ptr noundef nonnull %2)
  br label %18

9:                                                ; preds = %5
  %10 = getelementptr inbounds nuw i8, ptr %6, i64 1112
  store ptr null, ptr %10, align 8, !tbaa !18
  %11 = tail call i32 @cli_strbcasestr(ptr noundef %0, ptr noundef nonnull @.str.18) #19
  %.not16 = icmp eq i32 %11, 0
  br i1 %.not16, label %12, label %14

12:                                               ; preds = %9
  %13 = tail call i32 @cli_strbcasestr(ptr noundef %0, ptr noundef nonnull @.str.19) #19
  %.not17 = icmp eq i32 %13, 0
  %spec.select = select i1 %.not17, i32 0, i32 2
  br label %14

14:                                               ; preds = %12, %9
  %.0 = phi i32 [ 1, %9 ], [ %spec.select, %12 ]
  %15 = tail call i32 @cli_cvdload(ptr noundef nonnull %2, ptr noundef nonnull %6, ptr noundef null, i32 noundef 8218, i32 noundef %.0, ptr noundef %0, i32 noundef 1)
  %16 = tail call i32 @cl_engine_free(ptr noundef nonnull %6) #19
  %17 = tail call i32 @fclose(ptr noundef nonnull %2)
  br label %18

18:                                               ; preds = %14, %7, %4
  %.013 = phi i32 [ 8, %4 ], [ %15, %14 ], [ 20, %7 ]
  ret i32 %.013
}